target datalayout = "e-m:e-p270:32:32-p271:32:32-p272:64:64-i64:64-i128:128-f80:128-n8:16:32:64-S128"
target triple = "x86_64-pc-linux-gnu"

%struct.ident_t = type { i32, i32, i32, i32, ptr }
%"class.ncnn::Mat" = type { ptr, ptr, i64, i32, ptr, i32, i32, i32, i32, i32, i64 }

@1 = private unnamed_addr constant %struct.ident_t { i32 0, i32 514, i32 0, i32 22, ptr @0 }, align 8

; Function Attrs: noinline noreturn nounwind uwtable
define linkonce_odr hidden void @__clang_call_terminate(ptr noundef %0) #9 comdat {
  %2 = call ptr @__cxa_begin_catch(ptr %0) #8
  call void @_ZSt9terminatev() #17
  unreachable
}

; Function Attrs: alwaysinline mustprogress nounwind uwtable
define linkonce_odr hidden noundef ptr @_ZN4ncnn3MatcvPT_IaEEv(ptr noundef nonnull align 8 dereferenceable(72) %0) #5 comdat align 2 {
  %2 = alloca ptr, align 8
  store ptr %0, ptr %2, align 8, !tbaa !9
  %3 = load ptr, ptr %2, align 8
  %4 = getelementptr inbounds nuw %"class.ncnn::Mat", ptr %3, i32 0, i32 0
  %5 = load ptr, ptr %4, align 8, !tbaa !51
  ret ptr %5
}

; Function Attrs: alwaysinline mustprogress nounwind uwtable
define linkonce_odr hidden noundef ptr @_ZNK4ncnn3Mat3rowIKaEEPKT_i(ptr noundef nonnull align 8 dereferenceable(72) %0, i32 noundef %1) #5 comdat align 2 {
  %3 = alloca ptr, align 8
  %4 = alloca i32, align 4
  store ptr %0, ptr %3, align 8, !tbaa !9
  store i32 %1, ptr %4, align 4, !tbaa !13
  %5 = load ptr, ptr %3, align 8
  %6 = getelementptr inbounds nuw %"class.ncnn::Mat", ptr %5, i32 0, i32 0
  %7 = load ptr, ptr %6, align 8, !tbaa !51
  %8 = getelementptr inbounds nuw %"class.ncnn::Mat", ptr %5, i32 0, i32 6
  %9 = load i32, ptr %8, align 4, !tbaa !20
  %10 = sext i32 %9 to i64
  %11 = load i32, ptr %4, align 4, !tbaa !13
  %12 = sext i32 %11 to i64
  %13 = mul i64 %10, %12
  %14 = getelementptr inbounds nuw %"class.ncnn::Mat", ptr %5, i32 0, i32 2
  %15 = load i64, ptr %14, align 8, !tbaa !24
  %16 = mul i64 %13, %15
  %17 = getelementptr inbounds nuw i8, ptr %7, i64 %16
  ret ptr %17
}

; Function Attrs: alwaysinline norecurse nounwind uwtable
define internal void @_ZNK4ncnn15Flatten_x86_avx12forward_int8ERKNS_3MatERS1_RKNS_6OptionE.omp_outlined(ptr noalias noundef %0, ptr noalias noundef %1, ptr noundef nonnull align 4 dereferenceable(4) %2, ptr noundef nonnull align 8 dereferenceable(72) %3, ptr noundef nonnull align 8 dereferenceable(72) %4, ptr noundef nonnull align 4 dereferenceable(4) %5) #14 personality ptr @__gxx_personality_v0 {
  %7 = alloca ptr, align 8
  %8 = alloca ptr, align 8
  %9 = alloca ptr, align 8
  %10 = alloca ptr, align 8
  %11 = alloca ptr, align 8
  %12 = alloca ptr, align 8
  %13 = alloca ptr, align 8
  %14 = alloca ptr, align 8
  %15 = alloca i32, align 4
  %16 = alloca i32, align 4
  %17 = alloca i32, align 4
  %18 = alloca i32, align 4
  %19 = alloca i32, align 4
  %20 = alloca i32, align 4
  %21 = alloca i32, align 4
  %22 = alloca i32, align 4
  %23 = alloca i32, align 4
  %24 = alloca ptr, align 8
  %25 = alloca ptr, align 8
  %26 = alloca ptr, align 8
  %27 = alloca ptr, align 8
  %28 = alloca ptr, align 8
  %29 = alloca ptr, align 8
  %30 = alloca ptr, align 8
  %31 = alloca ptr, align 8
  %32 = alloca ptr, align 8
  %33 = alloca i32, align 4
  store ptr %0, ptr %7, align 8, !tbaa !53
  store ptr %1, ptr %8, align 8, !tbaa !53
  store ptr %2, ptr %9, align 8, !tbaa !53
  store ptr %3, ptr %10, align 8, !tbaa !9
  store ptr %4, ptr %11, align 8, !tbaa !9
  store ptr %5, ptr %12, align 8, !tbaa !53
  %34 = load ptr, ptr %9, align 8, !tbaa !53
  %35 = load ptr, ptr %10, align 8, !tbaa !9
  %36 = load ptr, ptr %11, align 8, !tbaa !9
  %37 = load ptr, ptr %12, align 8, !tbaa !53
  store ptr %35, ptr %13, align 8
  store ptr %36, ptr %14, align 8
  call void @llvm.lifetime.start.p0(i64 4, ptr %15) #8
  call void @llvm.lifetime.start.p0(i64 4, ptr %16) #8
  %38 = load i32, ptr %34, align 4, !tbaa !13
  store i32 %38, ptr %16, align 4, !tbaa !13
  call void @llvm.lifetime.start.p0(i64 4, ptr %17) #8
  %39 = load i32, ptr %16, align 4, !tbaa !13
  %40 = sub nsw i32 %39, 0
  %41 = sdiv i32 %40, 1
  %42 = sub nsw i32 %41, 1
  store i32 %42, ptr %17, align 4, !tbaa !13
  call void @llvm.lifetime.start.p0(i64 4, ptr %18) #8
  store i32 0, ptr %18, align 4, !tbaa !13
  call void @llvm.lifetime.end.p0(i64 4, ptr %18) #8
  %43 = load i32, ptr %16, align 4, !tbaa !13
  %44 = icmp slt i32 0, %43
  br i1 %44, label %45, label %210

45:                                               ; preds = %6
  call void @llvm.lifetime.start.p0(i64 4, ptr %19) #8
  store i32 0, ptr %19, align 4, !tbaa !13
  call void @llvm.lifetime.start.p0(i64 4, ptr %20) #8
  %46 = load i32, ptr %17, align 4, !tbaa !13
  store i32 %46, ptr %20, align 4, !tbaa !13
  call void @llvm.lifetime.start.p0(i64 4, ptr %21) #8
  store i32 1, ptr %21, align 4, !tbaa !13
  call void @llvm.lifetime.start.p0(i64 4, ptr %22) #8
  store i32 0, ptr %22, align 4, !tbaa !13
  call void @llvm.lifetime.start.p0(i64 4, ptr %23) #8
  %47 = load ptr, ptr %7, align 8
  %48 = load i32, ptr %47, align 4, !tbaa !13
  call void @__kmpc_for_static_init_4(ptr @1, i32 %48, i32 34, ptr %22, ptr %19, ptr %20, ptr %21, i32 1, i32 1)
  %49 = load i32, ptr %20, align 4, !tbaa !13
  %50 = load i32, ptr %17, align 4, !tbaa !13
  %51 = icmp sgt i32 %49, %50
  br i1 %51, label %52, label %54

52:                                               ; preds = %45
  %53 = load i32, ptr %17, align 4, !tbaa !13
  br label %56

54:                                               ; preds = %45
  %55 = load i32, ptr %20, align 4, !tbaa !13
  br label %56

56:                                               ; preds = %54, %52
  %57 = phi i32 [ %53, %52 ], [ %55, %54 ]
  store i32 %57, ptr %20, align 4, !tbaa !13
  %58 = load i32, ptr %19, align 4, !tbaa !13
  store i32 %58, ptr %15, align 4, !tbaa !13
  br label %59

59:                                               ; preds = %203, %56
  %60 = load i32, ptr %15, align 4, !tbaa !13
  %61 = load i32, ptr %20, align 4, !tbaa !13
  %62 = icmp sle i32 %60, %61
  br i1 %62, label %64, label %63

63:                                               ; preds = %59
  br label %206

64:                                               ; preds = %59
  %65 = load i32, ptr %15, align 4, !tbaa !13
  %66 = mul nsw i32 %65, 1
  %67 = add nsw i32 0, %66
  store i32 %67, ptr %23, align 4, !tbaa !13
  call void @llvm.lifetime.start.p0(i64 8, ptr %24) #8
  %68 = load ptr, ptr %13, align 8, !tbaa !9
  %69 = load i32, ptr %23, align 4, !tbaa !13
  %70 = invoke noundef ptr @_ZNK4ncnn3Mat3rowIKaEEPKT_i(ptr noundef nonnull align 8 dereferenceable(72) %68, i32 noundef %69)
          to label %71 unwind label %211

71:                                               ; preds = %64
  store ptr %70, ptr %24, align 8, !tbaa !74
  call void @llvm.lifetime.start.p0(i64 8, ptr %25) #8
  %72 = load ptr, ptr %14, align 8, !tbaa !9
  %73 = invoke noundef ptr @_ZN4ncnn3MatcvPT_IaEEv(ptr noundef nonnull align 8 dereferenceable(72) %72)
          to label %74 unwind label %211

74:                                               ; preds = %71
  %75 = load i32, ptr %37, align 4, !tbaa !13
  %76 = load i32, ptr %23, align 4, !tbaa !13
  %77 = mul nsw i32 %75, %76
  %78 = mul nsw i32 %77, 8
  %79 = sext i32 %78 to i64
  %80 = getelementptr inbounds i8, ptr %73, i64 %79
  store ptr %80, ptr %25, align 8, !tbaa !74
  call void @llvm.lifetime.start.p0(i64 8, ptr %26) #8
  %81 = load ptr, ptr %14, align 8, !tbaa !9
  %82 = invoke noundef ptr @_ZN4ncnn3MatcvPT_IaEEv(ptr noundef nonnull align 8 dereferenceable(72) %81)
          to label %83 unwind label %211

83:                                               ; preds = %74
  %84 = load i32, ptr %37, align 4, !tbaa !13
  %85 = load i32, ptr %23, align 4, !tbaa !13
  %86 = mul nsw i32 %85, 8
  %87 = add nsw i32 %86, 1
  %88 = mul nsw i32 %84, %87
  %89 = sext i32 %88 to i64
  %90 = getelementptr inbounds i8, ptr %82, i64 %89
  store ptr %90, ptr %26, align 8, !tbaa !74
  call void @llvm.lifetime.start.p0(i64 8, ptr %27) #8
  %91 = load ptr, ptr %14, align 8, !tbaa !9
  %92 = invoke noundef ptr @_ZN4ncnn3MatcvPT_IaEEv(ptr noundef nonnull align 8 dereferenceable(72) %91)
          to label %93 unwind label %211

93:                                               ; preds = %83
  %94 = load i32, ptr %37, align 4, !tbaa !13
  %95 = load i32, ptr %23, align 4, !tbaa !13
  %96 = mul nsw i32 %95, 8
  %97 = add nsw i32 %96, 2
  %98 = mul nsw i32 %94, %97
  %99 = sext i32 %98 to i64
  %100 = getelementptr inbounds i8, ptr %92, i64 %99
  store ptr %100, ptr %27, align 8, !tbaa !74
  call void @llvm.lifetime.start.p0(i64 8, ptr %28) #8
  %101 = load ptr, ptr %14, align 8, !tbaa !9
  %102 = invoke noundef ptr @_ZN4ncnn3MatcvPT_IaEEv(ptr noundef nonnull align 8 dereferenceable(72) %101)
          to label %103 unwind label %211

103:                                              ; preds = %93
  %104 = load i32, ptr %37, align 4, !tbaa !13
  %105 = load i32, ptr %23, align 4, !tbaa !13
  %106 = mul nsw i32 %105, 8
  %107 = add nsw i32 %106, 3
  %108 = mul nsw i32 %104, %107
  %109 = sext i32 %108 to i64
  %110 = getelementptr inbounds i8, ptr %102, i64 %109
  store ptr %110, ptr %28, align 8, !tbaa !74
  call void @llvm.lifetime.start.p0(i64 8, ptr %29) #8
  %111 = load ptr, ptr %14, align 8, !tbaa !9
  %112 = invoke noundef ptr @_ZN4ncnn3MatcvPT_IaEEv(ptr noundef nonnull align 8 dereferenceable(72) %111)
          to label %113 unwind label %211

113:                                              ; preds = %103
  %114 = load i32, ptr %37, align 4, !tbaa !13
  %115 = load i32, ptr %23, align 4, !tbaa !13
  %116 = mul nsw i32 %115, 8
  %117 = add nsw i32 %116, 4
  %118 = mul nsw i32 %114, %117
  %119 = sext i32 %118 to i64
  %120 = getelementptr inbounds i8, ptr %112, i64 %119
  store ptr %120, ptr %29, align 8, !tbaa !74
  call void @llvm.lifetime.start.p0(i64 8, ptr %30) #8
  %121 = load ptr, ptr %14, align 8, !tbaa !9
  %122 = invoke noundef ptr @_ZN4ncnn3MatcvPT_IaEEv(ptr noundef nonnull align 8 dereferenceable(72) %121)
          to label %123 unwind label %211

123:                                              ; preds = %113
  %124 = load i32, ptr %37, align 4, !tbaa !13
  %125 = load i32, ptr %23, align 4, !tbaa !13
  %126 = mul nsw i32 %125, 8
  %127 = add nsw i32 %126, 5
  %128 = mul nsw i32 %124, %127
  %129 = sext i32 %128 to i64
  %130 = getelementptr inbounds i8, ptr %122, i64 %129
  store ptr %130, ptr %30, align 8, !tbaa !74
  call void @llvm.lifetime.start.p0(i64 8, ptr %31) #8
  %131 = load ptr, ptr %14, align 8, !tbaa !9
  %132 = invoke noundef ptr @_ZN4ncnn3MatcvPT_IaEEv(ptr noundef nonnull align 8 dereferenceable(72) %131)
          to label %133 unwind label %211

133:                                              ; preds = %123
  %134 = load i32, ptr %37, align 4, !tbaa !13
  %135 = load i32, ptr %23, align 4, !tbaa !13
  %136 = mul nsw i32 %135, 8
  %137 = add nsw i32 %136, 6
  %138 = mul nsw i32 %134, %137
  %139 = sext i32 %138 to i64
  %140 = getelementptr inbounds i8, ptr %132, i64 %139
  store ptr %140, ptr %31, align 8, !tbaa !74
  call void @llvm.lifetime.start.p0(i64 8, ptr %32) #8
  %141 = load ptr, ptr %14, align 8, !tbaa !9
  %142 = invoke noundef ptr @_ZN4ncnn3MatcvPT_IaEEv(ptr noundef nonnull align 8 dereferenceable(72) %141)
          to label %143 unwind label %211

143:                                              ; preds = %133
  %144 = load i32, ptr %37, align 4, !tbaa !13
  %145 = load i32, ptr %23, align 4, !tbaa !13
  %146 = mul nsw i32 %145, 8
  %147 = add nsw i32 %146, 7
  %148 = mul nsw i32 %144, %147
  %149 = sext i32 %148 to i64
  %150 = getelementptr inbounds i8, ptr %142, i64 %149
  store ptr %150, ptr %32, align 8, !tbaa !74
  call void @llvm.lifetime.start.p0(i64 4, ptr %33) #8
  store i32 0, ptr %33, align 4, !tbaa !13
  br label %151

151:                                              ; preds = %198, %143
  %152 = load i32, ptr %33, align 4, !tbaa !13
  %153 = load i32, ptr %37, align 4, !tbaa !13
  %154 = icmp slt i32 %152, %153
  br i1 %154, label %155, label %201

155:                                              ; preds = %151
  %156 = load ptr, ptr %24, align 8, !tbaa !74
  %157 = getelementptr inbounds i8, ptr %156, i64 0
  %158 = load i8, ptr %157, align 1, !tbaa !56
  %159 = load ptr, ptr %25, align 8, !tbaa !74
  %160 = getelementptr inbounds nuw i8, ptr %159, i32 1
  store ptr %160, ptr %25, align 8, !tbaa !74
  store i8 %158, ptr %159, align 1, !tbaa !56
  %161 = load ptr, ptr %24, align 8, !tbaa !74
  %162 = getelementptr inbounds i8, ptr %161, i64 1
  %163 = load i8, ptr %162, align 1, !tbaa !56
  %164 = load ptr, ptr %26, align 8, !tbaa !74
  %165 = getelementptr inbounds nuw i8, ptr %164, i32 1
  store ptr %165, ptr %26, align 8, !tbaa !74
  store i8 %163, ptr %164, align 1, !tbaa !56
  %166 = load ptr, ptr %24, align 8, !tbaa !74
  %167 = getelementptr inbounds i8, ptr %166, i64 2
  %168 = load i8, ptr %167, align 1, !tbaa !56
  %169 = load ptr, ptr %27, align 8, !tbaa !74
  %170 = getelementptr inbounds nuw i8, ptr %169, i32 1
  store ptr %170, ptr %27, align 8, !tbaa !74
  store i8 %168, ptr %169, align 1, !tbaa !56
  %171 = load ptr, ptr %24, align 8, !tbaa !74
  %172 = getelementptr inbounds i8, ptr %171, i64 3
  %173 = load i8, ptr %172, align 1, !tbaa !56
  %174 = load ptr, ptr %28, align 8, !tbaa !74
  %175 = getelementptr inbounds nuw i8, ptr %174, i32 1
  store ptr %175, ptr %28, align 8, !tbaa !74
  store i8 %173, ptr %174, align 1, !tbaa !56
  %176 = load ptr, ptr %24, align 8, !tbaa !74
  %177 = getelementptr inbounds i8, ptr %176, i64 4
  %178 = load i8, ptr %177, align 1, !tbaa !56
  %179 = load ptr, ptr %29, align 8, !tbaa !74
  %180 = getelementptr inbounds nuw i8, ptr %179, i32 1
  store ptr %180, ptr %29, align 8, !tbaa !74
  store i8 %178, ptr %179, align 1, !tbaa !56
  %181 = load ptr, ptr %24, align 8, !tbaa !74
  %182 = getelementptr inbounds i8, ptr %181, i64 5
  %183 = load i8, ptr %182, align 1, !tbaa !56
  %184 = load ptr, ptr %30, align 8, !tbaa !74
  %185 = getelementptr inbounds nuw i8, ptr %184, i32 1
  store ptr %185, ptr %30, align 8, !tbaa !74
  store i8 %183, ptr %184, align 1, !tbaa !56
  %186 = load ptr, ptr %24, align 8, !tbaa !74
  %187 = getelementptr inbounds i8, ptr %186, i64 6
  %188 = load i8, ptr %187, align 1, !tbaa !56
  %189 = load ptr, ptr %31, align 8, !tbaa !74
  %190 = getelementptr inbounds nuw i8, ptr %189, i32 1
  store ptr %190, ptr %31, align 8, !tbaa !74
  store i8 %188, ptr %189, align 1, !tbaa !56
  %191 = load ptr, ptr %24, align 8, !tbaa !74
  %192 = getelementptr inbounds i8, ptr %191, i64 7
  %193 = load i8, ptr %192, align 1, !tbaa !56
  %194 = load ptr, ptr %32, align 8, !tbaa !74
  %195 = getelementptr inbounds nuw i8, ptr %194, i32 1
  store ptr %195, ptr %32, align 8, !tbaa !74
  store i8 %193, ptr %194, align 1, !tbaa !56
  %196 = load ptr, ptr %24, align 8, !tbaa !74
  %197 = getelementptr inbounds i8, ptr %196, i64 8
  store ptr %197, ptr %24, align 8, !tbaa !74
  br label %198

198:                                              ; preds = %155
  %199 = load i32, ptr %33, align 4, !tbaa !13
  %200 = add nsw i32 %199, 1
  store i32 %200, ptr %33, align 4, !tbaa !13
  br label %151, !llvm.loop !75

201:                                              ; preds = %151
  call void @llvm.lifetime.end.p0(i64 4, ptr %33) #8
  call void @llvm.lifetime.end.p0(i64 8, ptr %32) #8
  call void @llvm.lifetime.end.p0(i64 8, ptr %31) #8
  call void @llvm.lifetime.end.p0(i64 8, ptr %30) #8
  call void @llvm.lifetime.end.p0(i64 8, ptr %29) #8
  call void @llvm.lifetime.end.p0(i64 8, ptr %28) #8
  call void @llvm.lifetime.end.p0(i64 8, ptr %27) #8
  call void @llvm.lifetime.end.p0(i64 8, ptr %26) #8
  call void @llvm.lifetime.end.p0(i64 8, ptr %25) #8
  call void @llvm.lifetime.end.p0(i64 8, ptr %24) #8
  br label %202

202:                                              ; preds = %201
  br label %203

203:                                              ; preds = %202
  %204 = load i32, ptr %15, align 4, !tbaa !13
  %205 = add nsw i32 %204, 1
  store i32 %205, ptr %15, align 4, !tbaa !13
  br label %59

206:                                              ; preds = %63
  br label %207

207:                                              ; preds = %206
  %208 = load ptr, ptr %7, align 8
  %209 = load i32, ptr %208, align 4, !tbaa !13
  call void @__kmpc_for_static_fini(ptr @1, i32 %209)
  call void @llvm.lifetime.end.p0(i64 4, ptr %23) #8
  call void @llvm.lifetime.end.p0(i64 4, ptr %22) #8
  call void @llvm.lifetime.end.p0(i64 4, ptr %21) #8
  call void @llvm.lifetime.end.p0(i64 4, ptr %20) #8
  call void @llvm.lifetime.end.p0(i64 4, ptr %19) #8
  br label %210

210:                                              ; preds = %207, %6
  call void @llvm.lifetime.end.p0(i64 4, ptr %17) #8
  call void @llvm.lifetime.end.p0(i64 4, ptr %16) #8
  call void @llvm.lifetime.end.p0(i64 4, ptr %15) #8
  ret void

211:                                              ; preds = %133, %123, %113, %103, %93, %83, %74, %71, %64
  %212 = landingpad { ptr, i32 }
          catch ptr null
  %213 = extractvalue { ptr, i32 } %212, 0
  call void @__clang_call_terminate(ptr %213) #17
  unreachable
}